target datalayout = "e-m:e-p270:32:32-p271:32:32-p272:64:64-i64:64-i128:128-f80:128-n8:16:32:64-S128"
target triple = "x86_64-pc-linux-gnu"

%struct.ident_t = type { i32, i32, i32, i32, ptr }

@2 = private unnamed_addr constant %struct.ident_t { i32 0, i32 2, i32 0, i32 22, ptr @0 }, align 8

; Function Attrs: mustprogress uwtable
define void @_ZNK5faiss25IndexIVFAdditiveQuantizer9sa_decodeElPKhPf(ptr noundef nonnull align 8 dereferenceable(276) %0, i64 noundef %1, ptr noundef %2, ptr noundef %3) unnamed_addr #2 align 2 {
  %5 = alloca ptr, align 8
  %6 = alloca i64, align 8
  %7 = alloca ptr, align 8
  %8 = alloca ptr, align 8
  %9 = alloca i64, align 8
  %10 = alloca i32, align 4
  %11 = alloca i32, align 4
  %12 = call i32 @__kmpc_global_thread_num(ptr @2)
  store ptr %0, ptr %5, align 8
  store i64 %1, ptr %6, align 8
  store ptr %2, ptr %7, align 8
  store ptr %3, ptr %8, align 8
  %13 = load ptr, ptr %5, align 8
  %14 = getelementptr inbounds i8, ptr %13, i64 48
  %15 = call noundef i64 @_ZNK5faiss15Level1Quantizer16coarse_code_sizeEv(ptr noundef nonnull align 8 dereferenceable(72) %14)
  store i64 %15, ptr %9, align 8
  %16 = load i64, ptr %6, align 8
  %17 = icmp sgt i64 %16, 1000
  br i1 %17, label %18, label %19

18:                                               ; preds = %4
  call void (ptr, i32, ptr, ...) @__kmpc_fork_call(ptr @2, i32 5, ptr @_ZNK5faiss25IndexIVFAdditiveQuantizer9sa_decodeElPKhPf.omp_outlined, ptr %13, ptr %6, ptr %7, ptr %9, ptr %8)
  br label %20

19:                                               ; preds = %4
  call void @__kmpc_serialized_parallel(ptr @2, i32 %12)
  store i32 %12, ptr %10, align 4
  store i32 0, ptr %11, align 4
  call void @_ZNK5faiss25IndexIVFAdditiveQuantizer9sa_decodeElPKhPf.omp_outlined(ptr %10, ptr %11, ptr %13, ptr %6, ptr %7, ptr %9, ptr %8) #7
  call void @__kmpc_end_serialized_parallel(ptr @2, i32 %12)
  br label %20

20:                                               ; preds = %19, %18
  ret void
}