; Function Attrs: mustprogress uwtable
define void @_ZNK5faiss25IndexIVFAdditiveQuantizer9sa_decodeElPKhPf(ptr noundef nonnull align 8 dereferenceable(276) %0, i64 noundef %1, ptr noundef %2, ptr noundef %3) unnamed_addr #2 align 2 {
  %5 = alloca i64, align 8
  %6 = alloca ptr, align 8
  %7 = alloca ptr, align 8
  %8 = alloca i64, align 8
  %9 = alloca i32, align 4
  %10 = tail call i32 @__kmpc_global_thread_num(ptr nonnull @2)
  store i64 %1, ptr %5, align 8
  store ptr %2, ptr %6, align 8
  store ptr %3, ptr %7, align 8
  %11 = getelementptr inbounds i8, ptr %0, i64 48
  %12 = tail call noundef i64 @_ZNK5faiss15Level1Quantizer16coarse_code_sizeEv(ptr noundef nonnull align 8 dereferenceable(72) %11)
  store i64 %12, ptr %8, align 8
  %13 = icmp sgt i64 %1, 1000
  br i1 %13, label %14, label %15

14:                                               ; preds = %4
  call void (ptr, i32, ptr, ...) @__kmpc_fork_call(ptr nonnull @2, i32 5, ptr nonnull @_ZNK5faiss25IndexIVFAdditiveQuantizer9sa_decodeElPKhPf.omp_outlined, ptr nonnull %0, ptr nonnull %5, ptr nonnull %6, ptr nonnull %8, ptr nonnull %7)
  br label %16

15:                                               ; preds = %4
  tail call void @__kmpc_serialized_parallel(ptr nonnull @2, i32 %10)
  store i32 %10, ptr %9, align 4
  call void @_ZNK5faiss25IndexIVFAdditiveQuantizer9sa_decodeElPKhPf.omp_outlined(ptr nonnull %9, ptr nonnull poison, ptr nonnull %0, ptr %5, ptr %6, ptr %8, ptr %7) #9
  tail call void @__kmpc_end_serialized_parallel(ptr nonnull @2, i32 %10)
  br label %16

16:                                               ; preds = %15, %14
  ret void
}